target datalayout = "e-m:e-p270:32:32-p271:32:32-p272:64:64-i64:64-i128:128-f80:128-n8:16:32:64-S128"
target triple = "x86_64-unknown-linux-gnu"

%class.expr2var = type <{ ptr, %class.svector, %class.svector.0, %class.ptr_vector, %class.svector, i8, [7 x i8] }>
%class.svector.0 = type { %class.vector.1 }
%class.vector.1 = type { ptr }
%class.ptr_vector = type { %class.vector.2 }
%class.vector.2 = type { ptr }
%class.svector = type { %class.vector }
%class.vector = type { ptr }
%"struct.obj_map<expr, unsigned int>::key_data" = type <{ ptr, i32, [4 x i8] }>
%class.ast = type { i32, i24, i32, i32 }

; Function Attrs: mustprogress nounwind uwtable
define linkonce_odr hidden noundef i32 @_ZNK6vectorIjLb0EjE4sizeEv(ptr noundef nonnull align 8 dereferenceable(8) %this) #4 comdat align 2 {
entry:
  %retval = alloca i32, align 4
  %this.addr = alloca ptr, align 8
  store ptr %this, ptr %this.addr, align 8
  %this1 = load ptr, ptr %this.addr, align 8
  %m_data = getelementptr inbounds %class.vector, ptr %this1, i32 0, i32 0
  %0 = load ptr, ptr %m_data, align 8
  %cmp = icmp eq ptr %0, null
  br i1 %cmp, label %if.then, label %if.end

if.then:                                          ; preds = %entry
  store i32 0, ptr %retval, align 4
  br label %return

if.end:                                           ; preds = %entry
  %m_data2 = getelementptr inbounds %class.vector, ptr %this1, i32 0, i32 0
  %1 = load ptr, ptr %m_data2, align 8
  %arrayidx = getelementptr inbounds i32, ptr %1, i64 -1
  %2 = load i32, ptr %arrayidx, align 4
  store i32 %2, ptr %retval, align 4
  br label %return

return:                                           ; preds = %if.end, %if.then
  %3 = load i32, ptr %retval, align 4
  ret i32 %3
}

; Function Attrs: mustprogress nounwind uwtable
define linkonce_odr hidden noundef nonnull align 8 dereferenceable(12) ptr @_ZNK6vectorIN7obj_mapI4exprjE8key_dataELb0EjEixEj(ptr noundef nonnull align 8 dereferenceable(8) %this, i32 noundef %idx) #4 comdat align 2 {
entry:
  %this.addr = alloca ptr, align 8
  %idx.addr = alloca i32, align 4
  store ptr %this, ptr %this.addr, align 8
  store i32 %idx, ptr %idx.addr, align 4
  %this1 = load ptr, ptr %this.addr, align 8
  %m_data = getelementptr inbounds %class.vector.1, ptr %this1, i32 0, i32 0
  %0 = load ptr, ptr %m_data, align 8
  %1 = load i32, ptr %idx.addr, align 4
  %idxprom = zext i32 %1 to i64
  %arrayidx = getelementptr inbounds %"struct.obj_map<expr, unsigned int>::key_data", ptr %0, i64 %idxprom
  ret ptr %arrayidx
}

; Function Attrs: mustprogress nounwind uwtable
define linkonce_odr hidden noundef i32 @_ZNK6vectorIN7obj_mapI4exprjE8key_dataELb0EjE4sizeEv(ptr noundef nonnull align 8 dereferenceable(8) %this) #4 comdat align 2 {
entry:
  %retval = alloca i32, align 4
  %this.addr = alloca ptr, align 8
  store ptr %this, ptr %this.addr, align 8
  %this1 = load ptr, ptr %this.addr, align 8
  %m_data = getelementptr inbounds %class.vector.1, ptr %this1, i32 0, i32 0
  %0 = load ptr, ptr %m_data, align 8
  %cmp = icmp eq ptr %0, null
  br i1 %cmp, label %if.then, label %if.end

if.then:                                          ; preds = %entry
  store i32 0, ptr %retval, align 4
  br label %return

if.end:                                           ; preds = %entry
  %m_data2 = getelementptr inbounds %class.vector.1, ptr %this1, i32 0, i32 0
  %1 = load ptr, ptr %m_data2, align 8
  %arrayidx = getelementptr inbounds i32, ptr %1, i64 -1
  %2 = load i32, ptr %arrayidx, align 4
  store i32 %2, ptr %retval, align 4
  br label %return

return:                                           ; preds = %if.end, %if.then
  %3 = load i32, ptr %retval, align 4
  ret i32 %3
}

; Function Attrs: mustprogress uwtable
define linkonce_odr hidden noundef nonnull align 4 dereferenceable(4) ptr @_ZNK6vectorIjLb0EjE3getEjRKj(ptr noundef nonnull align 8 dereferenceable(8) %this, i32 noundef %idx, ptr noundef nonnull align 4 dereferenceable(4) %d) #5 comdat align 2 {
entry:
  %retval = alloca ptr, align 8
  %this.addr = alloca ptr, align 8
  %idx.addr = alloca i32, align 4
  %d.addr = alloca ptr, align 8
  store ptr %this, ptr %this.addr, align 8
  store i32 %idx, ptr %idx.addr, align 4
  store ptr %d, ptr %d.addr, align 8
  %this1 = load ptr, ptr %this.addr, align 8
  %0 = load i32, ptr %idx.addr, align 4
  %call = call noundef i32 @_ZNK6vectorIjLb0EjE4sizeEv(ptr noundef nonnull align 8 dereferenceable(8) %this1)
  %cmp = icmp uge i32 %0, %call
  br i1 %cmp, label %if.then, label %if.end

if.then:                                          ; preds = %entry
  %1 = load ptr, ptr %d.addr, align 8
  store ptr %1, ptr %retval, align 8
  br label %return

if.end:                                           ; preds = %entry
  %m_data = getelementptr inbounds %class.vector, ptr %this1, i32 0, i32 0
  %2 = load ptr, ptr %m_data, align 8
  %3 = load i32, ptr %idx.addr, align 4
  %idxprom = zext i32 %3 to i64
  %arrayidx = getelementptr inbounds i32, ptr %2, i64 %idxprom
  store ptr %arrayidx, ptr %retval, align 8
  br label %return

return:                                           ; preds = %if.end, %if.then
  %4 = load ptr, ptr %retval, align 8
  ret ptr %4
}

; Function Attrs: mustprogress nounwind uwtable
define linkonce_odr hidden noundef i32 @_ZNK3ast6get_idEv(ptr noundef nonnull align 4 dereferenceable(16) %this) #4 comdat align 2 {
entry:
  %this.addr = alloca ptr, align 8
  store ptr %this, ptr %this.addr, align 8
  %this1 = load ptr, ptr %this.addr, align 8
  %m_id = getelementptr inbounds %class.ast, ptr %this1, i32 0, i32 0
  %0 = load i32, ptr %m_id, align 4
  ret i32 %0
}

; Function Attrs: mustprogress uwtable
define hidden noundef i32 @_ZNK13atom2bool_var11to_bool_varEP4expr(ptr noundef nonnull align 8 dereferenceable(41) %this, ptr noundef %n) #5 align 2 {
entry:
  %retval = alloca i32, align 4
  %this.addr = alloca ptr, align 8
  %n.addr = alloca ptr, align 8
  %idx = alloca i32, align 4
  %ref.tmp = alloca i32, align 4
  store ptr %this, ptr %this.addr, align 8
  store ptr %n, ptr %n.addr, align 8
  %this1 = load ptr, ptr %this.addr, align 8
  %m_id2map = getelementptr inbounds %class.expr2var, ptr %this1, i32 0, i32 1
  %0 = load ptr, ptr %n.addr, align 8
  %call = call noundef i32 @_ZNK3ast6get_idEv(ptr noundef nonnull align 4 dereferenceable(16) %0)
  store i32 -1, ptr %ref.tmp, align 4
  %call2 = call noundef nonnull align 4 dereferenceable(4) ptr @_ZNK6vectorIjLb0EjE3getEjRKj(ptr noundef nonnull align 8 dereferenceable(8) %m_id2map, i32 noundef %call, ptr noundef nonnull align 4 dereferenceable(4) %ref.tmp)
  %1 = load i32, ptr %call2, align 4
  store i32 %1, ptr %idx, align 4
  %2 = load i32, ptr %idx, align 4
  %cmp = icmp eq i32 %2, -1
  br i1 %cmp, label %if.then, label %if.else

if.then:                                          ; preds = %entry
  store i32 2147483647, ptr %retval, align 4
  br label %return

if.else:                                          ; preds = %entry
  %3 = load i32, ptr %idx, align 4
  %m_mapping = getelementptr inbounds %class.expr2var, ptr %this1, i32 0, i32 2
  %call3 = call noundef i32 @_ZNK6vectorIN7obj_mapI4exprjE8key_dataELb0EjE4sizeEv(ptr noundef nonnull align 8 dereferenceable(8) %m_mapping)
  %cmp4 = icmp uge i32 %3, %call3
  br i1 %cmp4, label %if.then5, label %if.else6

if.then5:                                         ; preds = %if.else
  store i32 2147483647, ptr %retval, align 4
  br label %return

if.else6:                                         ; preds = %if.else
  %m_mapping7 = getelementptr inbounds %class.expr2var, ptr %this1, i32 0, i32 2
  %4 = load i32, ptr %idx, align 4
  %call8 = call noundef nonnull align 8 dereferenceable(12) ptr @_ZNK6vectorIN7obj_mapI4exprjE8key_dataELb0EjEixEj(ptr noundef nonnull align 8 dereferenceable(8) %m_mapping7, i32 noundef %4)
  %m_value = getelementptr inbounds %"struct.obj_map<expr, unsigned int>::key_data", ptr %call8, i32 0, i32 1
  %5 = load i32, ptr %m_value, align 8
  store i32 %5, ptr %retval, align 4
  br label %return

return:                                           ; preds = %if.else6, %if.then5, %if.then
  %6 = load i32, ptr %retval, align 4
  ret i32 %6
}