; Function Attrs: mustprogress nofree norecurse nosync nounwind willreturn memory(read, inaccessiblemem: none) uwtable
define hidden noundef i32 @_ZNK13atom2bool_var11to_bool_varEP4expr(ptr nocapture noundef nonnull readonly align 8 dereferenceable(41) %this, ptr nocapture noundef readonly %n) local_unnamed_addr #4 align 2 {
entry:
  %m_id2map = getelementptr inbounds i8, ptr %this, i64 8
  %0 = load ptr, ptr %m_id2map, align 8
  %cmp.i.i = icmp eq ptr %0, null
  br i1 %cmp.i.i, label %return, label %_ZNK6vectorIjLb0EjE3getEjRKj.exit

_ZNK6vectorIjLb0EjE3getEjRKj.exit:                ; preds = %entry
  %1 = load i32, ptr %n, align 4
  %arrayidx.i.i = getelementptr inbounds i8, ptr %0, i64 -4
  %2 = load i32, ptr %arrayidx.i.i, align 4
  %cmp.not.i = icmp ugt i32 %2, %1
  br i1 %cmp.not.i, label %_ZNK6vectorIjLb0EjE3getEjRKj.exit.cont, label %return

_ZNK6vectorIjLb0EjE3getEjRKj.exit.cont:           ; preds = %_ZNK6vectorIjLb0EjE3getEjRKj.exit
  %idxprom.i = zext i32 %1 to i64
  %arrayidx.i = getelementptr inbounds i32, ptr %0, i64 %idxprom.i
  %.then.val = load i32, ptr %arrayidx.i, align 4
  %cmp = icmp eq i32 %.then.val, -1
  br i1 %cmp, label %return, label %if.else

if.else:                                          ; preds = %_ZNK6vectorIjLb0EjE3getEjRKj.exit.cont
  %m_mapping = getelementptr inbounds i8, ptr %this, i64 16
  %3 = load ptr, ptr %m_mapping, align 8
  %cmp.i = icmp eq ptr %3, null
  br i1 %cmp.i, label %return, label %_ZNK6vectorIN7obj_mapI4exprjE8key_dataELb0EjE4sizeEv.exit

_ZNK6vectorIN7obj_mapI4exprjE8key_dataELb0EjE4sizeEv.exit: ; preds = %if.else
  %arrayidx.i3 = getelementptr inbounds i8, ptr %3, i64 -4
  %4 = load i32, ptr %arrayidx.i3, align 4
  %cmp4.not = icmp ult i32 %.then.val, %4
  br i1 %cmp4.not, label %if.else6, label %return

if.else6:                                         ; preds = %_ZNK6vectorIN7obj_mapI4exprjE8key_dataELb0EjE4sizeEv.exit
  %idxprom.i5 = zext i32 %.then.val to i64
  %m_value = getelementptr inbounds %"struct.obj_map<expr, unsigned int>::key_data", ptr %3, i64 %idxprom.i5, i32 1
  %5 = load i32, ptr %m_value, align 8
  br label %return

return:                                           ; preds = %if.else, %entry, %_ZNK6vectorIjLb0EjE3getEjRKj.exit, %_ZNK6vectorIN7obj_mapI4exprjE8key_dataELb0EjE4sizeEv.exit, %_ZNK6vectorIjLb0EjE3getEjRKj.exit.cont, %if.else6
  %retval.0 = phi i32 [ %5, %if.else6 ], [ 2147483647, %_ZNK6vectorIjLb0EjE3getEjRKj.exit.cont ], [ 2147483647, %_ZNK6vectorIN7obj_mapI4exprjE8key_dataELb0EjE4sizeEv.exit ], [ 2147483647, %_ZNK6vectorIjLb0EjE3getEjRKj.exit ], [ 2147483647, %entry ], [ 2147483647, %if.else ]
  ret i32 %retval.0
}